target datalayout = "e-m:e-p270:32:32-p271:32:32-p272:64:64-i64:64-i128:128-f80:128-n8:16:32:64-S128"
target triple = "x86_64-pc-linux-gnu"

@hf_mikey = internal global [71 x i32] zeroinitializer, align 16

; Function Attrs: null_pointer_is_valid sspstrong uwtable
define internal i32 @dissect_payload_rand(ptr noundef %0, ptr noundef %1, ptr noundef %2, ptr noundef %3) #0 {
  %5 = alloca ptr, align 8
  %6 = alloca ptr, align 8
  %7 = alloca ptr, align 8
  %8 = alloca ptr, align 8
  %9 = alloca i32, align 4
  %10 = alloca i16, align 2
  store ptr %0, ptr %5, align 8
  store ptr %1, ptr %6, align 8
  store ptr %2, ptr %7, align 8
  store ptr %3, ptr %8, align 8
  call void @llvm.lifetime.start.p0(i64 4, ptr %9) #5
  store i32 0, ptr %9, align 4
  call void @llvm.lifetime.start.p0(i64 2, ptr %10) #5
  %11 = load ptr, ptr %6, align 8
  %12 = load i32, ptr %9, align 4
  %13 = add i32 %12, 1
  %14 = call zeroext i8 @tvb_get_uint8(ptr noundef %11, i32 noundef %13)
  %15 = zext i8 %14 to i16
  store i16 %15, ptr %10, align 2
  %16 = load ptr, ptr %8, align 8
  %17 = load i32, ptr getelementptr ([71 x i32], ptr @hf_mikey, i64 0, i64 44), align 16
  %18 = load ptr, ptr %6, align 8
  %19 = call ptr @proto_tree_add_item(ptr noundef %16, i32 noundef %17, ptr noundef %18, i32 noundef 1, i32 noundef 1, i32 noundef 0)
  %20 = load ptr, ptr %8, align 8
  %21 = load i32, ptr getelementptr ([71 x i32], ptr @hf_mikey, i64 0, i64 45), align 4
  %22 = load ptr, ptr %6, align 8
  %23 = load i16, ptr %10, align 2
  %24 = zext i16 %23 to i32
  %25 = call ptr @proto_tree_add_item(ptr noundef %20, i32 noundef %21, ptr noundef %22, i32 noundef 2, i32 noundef %24, i32 noundef 0)
  %26 = load i16, ptr %10, align 2
  %27 = zext i16 %26 to i32
  %28 = add i32 2, %27
  call void @llvm.lifetime.end.p0(i64 2, ptr %10) #5
  call void @llvm.lifetime.end.p0(i64 4, ptr %9) #5
  ret i32 %28
}