; Function Attrs: null_pointer_is_valid sspstrong uwtable
define internal range(i32 2, 258) i32 @dissect_payload_rand(ptr readnone captures(none) %0, ptr noundef %1, ptr readnone captures(none) %2, ptr noundef %3) #0 {
  %5 = tail call zeroext i8 @tvb_get_uint8(ptr noundef %1, i32 noundef 1)
  %6 = load i32, ptr getelementptr inbounds nuw (i8, ptr @hf_mikey, i64 176), align 16
  %7 = tail call ptr @proto_tree_add_item(ptr noundef %3, i32 noundef %6, ptr noundef %1, i32 noundef 1, i32 noundef 1, i32 noundef 0)
  %8 = load i32, ptr getelementptr inbounds nuw (i8, ptr @hf_mikey, i64 180), align 4
  %9 = zext i8 %5 to i32
  %10 = tail call ptr @proto_tree_add_item(ptr noundef %3, i32 noundef %8, ptr noundef %1, i32 noundef 2, i32 noundef %9, i32 noundef 0)
  %11 = add nuw nsw i32 %9, 2
  ret i32 %11
}